; Function Attrs: mustprogress nounwind uwtable
define dso_local noundef i32 @_ZN4node6crypto8SignBase6UpdateEPKcm(ptr nocapture noundef nonnull readonly align 8 dereferenceable(40) %this, ptr noundef %data, i64 noundef %len) local_unnamed_addr #3 align 2 {
entry:
  %mdctx_ = getelementptr inbounds i8, ptr %this, i64 32
  %0 = load ptr, ptr %mdctx_, align 8
  %cmp.i.not.i = icmp eq ptr %0, null
  br i1 %cmp.i.not.i, label %return, label %if.end

if.end:                                           ; preds = %entry
  %call4 = tail call i32 @EVP_DigestUpdate(ptr noundef nonnull %0, ptr noundef %data, i64 noundef %len) #21
  %tobool.not = icmp eq i32 %call4, 0
  %. = select i1 %tobool.not, i32 4, i32 0
  br label %return

return:                                           ; preds = %if.end, %entry
  %retval.0 = phi i32 [ 3, %entry ], [ %., %if.end ]
  ret i32 %retval.0
}